; File generated automatically, do not edit!

NAME framedyn.dll

EXPORTS
 ?AllocBeforeWrite@CHString@@IAEXH@Z=_ZN8CHString16AllocBeforeWriteEi
 ?AllocBuffer@CHString@@IAEXH@Z=_ZN8CHString11AllocBufferEi
 ?AllocCopy@CHString@@IBEXAAV1@HHH@Z=_ZNK8CHString9AllocCopyERS_iii
 ?AllocSysString@CHString@@QBEPAGXZ=_ZNK8CHString14AllocSysStringEv
 ?AssignCopy@CHString@@IAEXHPBG@Z=_ZN8CHString10AssignCopyEiPKw
 ??0CHString@@QAE@ABV0@@Z=_ZN8CHStringC1ERKS_
 ??0CHString@@QAE@PBD@Z=_ZN8CHStringC1EPKc
 ??0CHString@@QAE@PBE@Z=_ZN8CHStringC1EPKh
 ??0CHString@@QAE@PBG@Z=_ZN8CHStringC1EPKw
 ??0CHString@@QAE@PBGH@Z=_ZN8CHStringC1EPKwi
 ??0CHString@@QAE@GH@Z=_ZN8CHStringC1Ewi
 ??0CHString@@QAE@XZ=_ZN8CHStringC1Ev
 ?Collate@CHString@@QBEHPBG@Z=_ZNK8CHString7CollateEPKw
 ?Compare@CHString@@QBEHPBG@Z=_ZNK8CHString7CompareEPKw
 ?CompareNoCase@CHString@@QBEHPBG@Z=_ZNK8CHString13CompareNoCaseEPKw
 ?ConcatCopy@CHString@@IAEXHPBGH0@Z=_ZN8CHString10ConcatCopyEiPKwiS1_
 ?ConcatInPlace@CHString@@IAEXHPBG@Z=_ZN8CHString13ConcatInPlaceEiPKw
 ?CopyBeforeWrite@CHString@@IAEXXZ=_ZN8CHString15CopyBeforeWriteEv
 ?Empty@CHString@@QAEXXZ=_ZN8CHString5EmptyEv
 ?Find@CHString@@QBEHPBG@Z=_ZNK8CHString4FindEPKw
 ?Find@CHString@@QBEHG@Z=_ZNK8CHString4FindEw
 ?FindOneOf@CHString@@QBEHPBG@Z=_ZNK8CHString9FindOneOfEPKw
 ?Format@CHString@@QAAXIZZ=_ZN8CHString6FormatEjz
 ?Format@CHString@@QAAXPBGZZ=_ZN8CHString6FormatEPKwz
 ?FormatMessageW@CHString@@QAAXIZZ=_ZN8CHString14FormatMessageWEjz
 ?FormatMessageW@CHString@@QAAXPBGZZ=_ZN8CHString14FormatMessageWEPKwz
 ?FormatV@CHString@@QAEXPBGPAD@Z=_ZN8CHString7FormatVEPKwPc
 ?FreeExtra@CHString@@QAEXXZ=_ZN8CHString9FreeExtraEv
 ?GetAllocLength@CHString@@QBEHXZ=_ZNK8CHString14GetAllocLengthEv
 ?GetAt@CHString@@QBEGH@Z=_ZNK8CHString5GetAtEi
 ?GetBuffer@CHString@@QAEPAGH@Z=_ZN8CHString9GetBufferEi
 ?GetBufferSetLength@CHString@@QAEPAGH@Z=_ZN8CHString18GetBufferSetLengthEi
 ?GetData@CHString@@IBEPAUCHStringData@@XZ=_ZNK8CHString7GetDataEv
 ?GetLength@CHString@@QBEHXZ=_ZNK8CHString9GetLengthEv
 ?Init@CHString@@IAEXXZ=_ZN8CHString4InitEv
 ?IsEmpty@CHString@@QBEHXZ=_ZNK8CHString7IsEmptyEv
 ?Left@CHString@@QBE?AV1@H@Z=_ZNK8CHString4LeftEi
 ?LoadStringW@CHString@@QAEHI@Z=_ZN8CHString11LoadStringWEj
 ?LoadStringW@CHString@@IAEHIPAGI@Z=_ZN8CHString11LoadStringWEjPwj
 ?LockBuffer@CHString@@QAEPAGXZ=_ZN8CHString10LockBufferEv
 ?MakeLower@CHString@@QAEXXZ=_ZN8CHString9MakeLowerEv
 ?MakeReverse@CHString@@QAEXXZ=_ZN8CHString11MakeReverseEv
 ?MakeUpper@CHString@@QAEXXZ=_ZN8CHString9MakeUpperEv
 ?Mid@CHString@@QBE?AV1@H@Z=_ZNK8CHString3MidEi
 ?Mid@CHString@@QBE?AV1@HH@Z=_ZNK8CHString3MidEii
 ?Release@CHString@@KGXPAUCHStringData@@@Z=_ZN8CHString7ReleaseEP12CHStringData@4
 ?Release@CHString@@IAEXXZ=_ZN8CHString7ReleaseEv
 ?ReleaseBuffer@CHString@@QAEXH@Z=_ZN8CHString13ReleaseBufferEi
 ?ReverseFind@CHString@@QBEHG@Z=_ZNK8CHString11ReverseFindEw
 ?Right@CHString@@QBE?AV1@H@Z=_ZNK8CHString5RightEi
 ?SafeStrlen@CHString@@KGHPBG@Z=_ZN8CHString10SafeStrlenEPKw@4
 ?SetAt@CHString@@QAEXHG@Z=_ZN8CHString5SetAtEiw
 ?SpanExcluding@CHString@@QBE?AV1@PBG@Z=_ZNK8CHString13SpanExcludingEPKw
 ?SpanIncluding@CHString@@QBE?AV1@PBG@Z=_ZNK8CHString13SpanIncludingEPKw
 ?TrimLeft@CHString@@QAEXXZ=_ZN8CHString8TrimLeftEv
 ?TrimRight@CHString@@QAEXXZ=_ZN8CHString9TrimRightEv
 ?UnlockBuffer@CHString@@QAEXXZ=_ZN8CHString12UnlockBufferEv
 ??BCHString@@QBEPBGXZ=_ZNK8CHStringcvPKwEv
 ??YCHString@@QAEABV0@ABV0@@Z=_ZN8CHStringpLERKS_
 ??YCHString@@QAEABV0@D@Z=_ZN8CHStringpLEc
 ??YCHString@@QAEABV0@PBG@Z=_ZN8CHStringpLEPKw
 ??YCHString@@QAEABV0@G@Z=_ZN8CHStringpLEw
 ??4CHString@@QAEABV0@PAV0@@Z=_ZN8CHStringaSEPS_
 ??4CHString@@QAEABV0@ABV0@@Z=_ZN8CHStringaSERKS_
 ??4CHString@@QAEABV0@PBD@Z=_ZN8CHStringaSEPKc
 ??4CHString@@QAEABV0@D@Z=_ZN8CHStringaSEc
 ??4CHString@@QAEABV0@PBE@Z=_ZN8CHStringaSEPKh
 ??4CHString@@QAEABV0@PBG@Z=_ZN8CHStringaSEPKw
 ??4CHString@@QAEABV0@G@Z=_ZN8CHStringaSEw
 ??ACHString@@QBEGH@Z=_ZNK8CHStringixEi
 ??1CHString@@QAE@XZ=_ZN8CHStringD1Ev
 ??H@YG?AVCHString@@GABV0@@Z=_ZplwRK8CHString@8
 ??H@YG?AVCHString@@ABV0@G@Z=_ZplRK8CHStringw@8
 ??H@YG?AVCHString@@ABV0@PBG@Z=_ZplRK8CHStringPKw@8
 ??H@YG?AVCHString@@PBGABV0@@Z=_ZplPKwRK8CHString@8
 ??H@YG?AVCHString@@ABV0@0@Z=_ZplRK8CHStringS1_@8
 ?Flush@Provider@@MAEXXZ=_ZN8Provider5FlushEv
 ?ValidateDeletionFlags@Provider@@MAEJJ@Z=_ZN8Provider21ValidateDeletionFlagsEl
 ?ValidateMethodFlags@Provider@@MAEJJ@Z=_ZN8Provider19ValidateMethodFlagsEl
 ?ValidateQueryFlags@Provider@@MAEJJ@Z=_ZN8Provider18ValidateQueryFlagsEl
