; File generated automatically, do not edit!

NAME vssapi.dll

EXPORTS
 IsVolumeSnapshotted
 VssFreeSnapshotProperties
 ShouldBlockRevert
 ??0CVssJetWriter@@QAE@XZ=stub_function4
 ??0CVssWriter@@QAE@XZ=__thiscall_VSSAPI_CVssWriter_default_ctor
 ??1CVssJetWriter@@UAE@XZ=stub_function6
 ??1CVssWriter@@UAE@XZ=__thiscall_VSSAPI_CVssWriter_dtor
 ?AreComponentsSelected@CVssJetWriter@@IBG_NXZ=stub_function8
 ?AreComponentsSelected@CVssWriter@@IBG_NXZ=stub_function9
 ?CreateVssBackupComponents@@YGJPAPAVIVssBackupComponents@@@Z=stub_function10
 ?CreateVssExamineWriterMetadata@@YGJPAGPAPAVIVssExamineWriterMetadata@@@Z=stub_function11
 ?CreateVssSnapshotSetDescription@@YGJU_GUID@@JPAPAVIVssSnapshotSetDescription@@@Z=stub_function12
 ?GetBackupType@CVssJetWriter@@IBG?AW4_VSS_BACKUP_TYPE@@XZ=stub_function13
 ?GetBackupType@CVssWriter@@IBG?AW4_VSS_BACKUP_TYPE@@XZ=stub_function14
 ?GetContext@CVssJetWriter@@IBGJXZ=stub_function15
 ?GetContext@CVssWriter@@IBGJXZ=stub_function16
 ?GetCurrentLevel@CVssJetWriter@@IBG?AW4_VSS_APPLICATION_LEVEL@@XZ=stub_function17
 ?GetCurrentLevel@CVssWriter@@IBG?AW4_VSS_APPLICATION_LEVEL@@XZ=stub_function18
 ?GetCurrentSnapshotSetId@CVssJetWriter@@IBG?AU_GUID@@XZ=stub_function19
 ?GetCurrentSnapshotSetId@CVssWriter@@IBG?AU_GUID@@XZ=stub_function20
 ?GetCurrentVolumeArray@CVssJetWriter@@IBGPAPBGXZ=stub_function21
 ?GetCurrentVolumeArray@CVssWriter@@IBGPAPBGXZ=stub_function22
 ?GetCurrentVolumeCount@CVssJetWriter@@IBGIXZ=stub_function23
 ?GetCurrentVolumeCount@CVssWriter@@IBGIXZ=stub_function24
 ?GetRestoreType@CVssJetWriter@@IBG?AW4_VSS_RESTORE_TYPE@@XZ=stub_function25
 ?GetRestoreType@CVssWriter@@IBG?AW4_VSS_RESTORE_TYPE@@XZ=stub_function26
 ?GetSnapshotDeviceName@CVssJetWriter@@IBGJPBGPAPBG@Z=stub_function27
 ?GetSnapshotDeviceName@CVssWriter@@IBGJPBGPAPBG@Z=stub_function28
 ?Initialize@CVssJetWriter@@QAGJU_GUID@@PBG_N211K@Z=stub_function29
 ?Initialize@CVssWriter@@QAGJU_GUID@@PBGW4VSS_USAGE_TYPE@@W4VSS_SOURCE_TYPE@@W4_VSS_APPLICATION_LEVEL@@KW4VSS_ALTERNATE_WRITER_STATE@@_N@Z=__thiscall_VSSAPI_CVssWriter_Initialize
 ?InstallAlternateWriter@CVssWriter@@QAGJU_GUID@@0@Z=stub_function31
 ?IsBootableSystemStateBackedUp@CVssJetWriter@@IBG_NXZ=stub_function32
 ?IsBootableSystemStateBackedUp@CVssWriter@@IBG_NXZ=stub_function33
 ?IsPartialFileSupportEnabled@CVssJetWriter@@IBG_NXZ=stub_function34
 ?IsPartialFileSupportEnabled@CVssWriter@@IBG_NXZ=stub_function35
 ?IsPathAffected@CVssJetWriter@@IBG_NPBG@Z=stub_function36
 ?IsPathAffected@CVssWriter@@IBG_NPBG@Z=stub_function37
 ?LoadVssSnapshotSetDescription@@YGJPBGPAPAVIVssSnapshotSetDescription@@U_GUID@@@Z=stub_function38
 ?OnAbortBegin@CVssJetWriter@@UAGXXZ=stub_function39
 ?OnAbortEnd@CVssJetWriter@@UAGXXZ=stub_function40
 ?OnBackOffIOOnVolume@CVssWriter@@UAG_NPAGU_GUID@@1@Z=stub_function41
 ?OnBackupComplete@CVssWriter@@UAG_NPAVIVssWriterComponents@@@Z=stub_function42
 ?OnBackupCompleteBegin@CVssJetWriter@@UAG_NPAVIVssWriterComponents@@@Z=stub_function43
 ?OnBackupCompleteEnd@CVssJetWriter@@UAG_NPAVIVssWriterComponents@@_N@Z=stub_function44
 ?OnBackupShutdown@CVssWriter@@UAG_NU_GUID@@@Z=stub_function45
 ?OnContinueIOOnVolume@CVssWriter@@UAG_NPAGU_GUID@@1@Z=stub_function46
 ?OnFreezeBegin@CVssJetWriter@@UAG_NXZ=stub_function47
 ?OnFreezeEnd@CVssJetWriter@@UAG_N_N@Z=stub_function48
 ?OnIdentify@CVssJetWriter@@UAG_NPAVIVssCreateWriterMetadata@@@Z=stub_function49
 ?OnIdentify@CVssWriter@@UAG_NPAVIVssCreateWriterMetadata@@@Z=stub_function50
 ?OnPostRestore@CVssWriter@@UAG_NPAVIVssWriterComponents@@@Z=stub_function51
 ?OnPostRestoreBegin@CVssJetWriter@@UAG_NPAVIVssWriterComponents@@@Z=stub_function52
 ?OnPostRestoreEnd@CVssJetWriter@@UAG_NPAVIVssWriterComponents@@_N@Z=stub_function53
 ?OnPostSnapshot@CVssJetWriter@@UAG_NPAVIVssWriterComponents@@@Z=stub_function54
 ?OnPostSnapshot@CVssWriter@@UAG_NPAVIVssWriterComponents@@@Z=stub_function55
 ?OnPreRestore@CVssWriter@@UAG_NPAVIVssWriterComponents@@@Z=stub_function56
 ?OnPreRestoreBegin@CVssJetWriter@@UAG_NPAVIVssWriterComponents@@@Z=stub_function57
 ?OnPreRestoreEnd@CVssJetWriter@@UAG_NPAVIVssWriterComponents@@_N@Z=stub_function58
 ?OnPrepareBackup@CVssWriter@@UAG_NPAVIVssWriterComponents@@@Z=stub_function59
 ?OnPrepareBackupBegin@CVssJetWriter@@UAG_NPAVIVssWriterComponents@@@Z=stub_function60
 ?OnPrepareBackupEnd@CVssJetWriter@@UAG_NPAVIVssWriterComponents@@_N@Z=stub_function61
 ?OnPrepareSnapshotBegin@CVssJetWriter@@UAG_NXZ=stub_function62
 ?OnPrepareSnapshotEnd@CVssJetWriter@@UAG_N_N@Z=stub_function63
 ?OnThawBegin@CVssJetWriter@@UAG_NXZ=stub_function64
 ?OnThawEnd@CVssJetWriter@@UAG_N_N@Z=stub_function65
 ?OnVSSApplicationStartup@CVssWriter@@UAG_NXZ=stub_function66
 ?OnVSSShutdown@CVssWriter@@UAG_NXZ=stub_function67
 ?SetWriterFailure@CVssJetWriter@@IAGJJ@Z=stub_function68
 ?SetWriterFailure@CVssWriter@@IAGJJ@Z=stub_function69
 ?Subscribe@CVssWriter@@QAGJK@Z=__thiscall_VSSAPI_CVssWriter_Subscribe
 ?Uninitialize@CVssJetWriter@@QAGXXZ=stub_function71
 ?Unsubscribe@CVssWriter@@QAGJXZ=__thiscall_VSSAPI_CVssWriter_Unsubscribe
 CreateVssBackupComponentsInternal
 CreateVssExamineWriterMetadataInternal
 CreateVssExpressWriterInternal
 CreateWriter
 CreateWriterEx
 DllCanUnloadNow PRIVATE
 DllGetClassObject PRIVATE
 GetProviderMgmtInterface
 GetProviderMgmtInterfaceInternal
 IsVolumeSnapshottedInternal
 ShouldBlockRevertInternal
 VssFreeSnapshotPropertiesInternal
